target datalayout = "e-m:e-p270:32:32-p271:32:32-p272:64:64-i64:64-i128:128-f80:128-n8:16:32:64-S128"
target triple = "x86_64-pc-linux-gnu"

; Function Attrs: nounwind uwtable
define internal void @spatial_compensation_10(ptr noalias noundef %0, ptr noalias noundef %1, i64 noundef %2) #1 {
  %4 = alloca ptr, align 8
  %5 = alloca ptr, align 8
  %6 = alloca i64, align 8
  %7 = alloca i32, align 4
  %8 = alloca i32, align 4
  store ptr %0, ptr %4, align 8, !tbaa !14
  store ptr %1, ptr %5, align 8, !tbaa !14
  store i64 %2, ptr %6, align 8, !tbaa !16
  call void @llvm.lifetime.start.p0(i64 4, ptr %7) #6
  call void @llvm.lifetime.start.p0(i64 4, ptr %8) #6
  store i32 0, ptr %8, align 4, !tbaa !18
  br label %9

9:                                                ; preds = %51, %3
  %10 = load i32, ptr %8, align 4, !tbaa !18
  %11 = icmp slt i32 %10, 8
  br i1 %11, label %12, label %54

12:                                               ; preds = %9
  store i32 0, ptr %7, align 4, !tbaa !18
  br label %13

13:                                               ; preds = %44, %12
  %14 = load i32, ptr %7, align 4, !tbaa !18
  %15 = icmp slt i32 %14, 8
  br i1 %15, label %16, label %47

16:                                               ; preds = %13
  %17 = load ptr, ptr %4, align 8, !tbaa !14
  %18 = load i32, ptr %8, align 4, !tbaa !18
  %19 = sub nsw i32 15, %18
  %20 = sext i32 %19 to i64
  %21 = getelementptr inbounds i8, ptr %17, i64 %20
  %22 = load i8, ptr %21, align 1, !tbaa !22
  %23 = zext i8 %22 to i32
  %24 = load i32, ptr %7, align 4, !tbaa !18
  %25 = sub nsw i32 8, %24
  %26 = mul nsw i32 %23, %25
  %27 = load ptr, ptr %4, align 8, !tbaa !14
  %28 = load i32, ptr %7, align 4, !tbaa !18
  %29 = add nsw i32 17, %28
  %30 = sext i32 %29 to i64
  %31 = getelementptr inbounds i8, ptr %27, i64 %30
  %32 = load i8, ptr %31, align 1, !tbaa !22
  %33 = zext i8 %32 to i32
  %34 = load i32, ptr %7, align 4, !tbaa !18
  %35 = mul nsw i32 %33, %34
  %36 = add nsw i32 %26, %35
  %37 = add nsw i32 %36, 4
  %38 = ashr i32 %37, 3
  %39 = trunc i32 %38 to i8
  %40 = load ptr, ptr %5, align 8, !tbaa !14
  %41 = load i32, ptr %7, align 4, !tbaa !18
  %42 = sext i32 %41 to i64
  %43 = getelementptr inbounds i8, ptr %40, i64 %42
  store i8 %39, ptr %43, align 1, !tbaa !22
  br label %44

44:                                               ; preds = %16
  %45 = load i32, ptr %7, align 4, !tbaa !18
  %46 = add nsw i32 %45, 1
  store i32 %46, ptr %7, align 4, !tbaa !18
  br label %13, !llvm.loop !54

47:                                               ; preds = %13
  %48 = load i64, ptr %6, align 8, !tbaa !16
  %49 = load ptr, ptr %5, align 8, !tbaa !14
  %50 = getelementptr inbounds i8, ptr %49, i64 %48
  store ptr %50, ptr %5, align 8, !tbaa !14
  br label %51

51:                                               ; preds = %47
  %52 = load i32, ptr %8, align 4, !tbaa !18
  %53 = add nsw i32 %52, 1
  store i32 %53, ptr %8, align 4, !tbaa !18
  br label %9, !llvm.loop !55

54:                                               ; preds = %9
  call void @llvm.lifetime.end.p0(i64 4, ptr %8) #6
  call void @llvm.lifetime.end.p0(i64 4, ptr %7) #6
  ret void
}