; Function Attrs: nofree norecurse nosync nounwind memory(argmem: readwrite) uwtable
define internal void @spatial_compensation_10(ptr noalias noundef readonly captures(none) %0, ptr noalias noundef writeonly captures(none) %1, i64 noundef %2) #1 {
  %invariant.gep = getelementptr inbounds nuw i8, ptr %0, i64 17
  br label %.preheader

.preheader:                                       ; preds = %3, %21
  %indvars.iv19 = phi i64 [ 0, %3 ], [ %indvars.iv.next20, %21 ]
  %.01416 = phi ptr [ %1, %3 ], [ %22, %21 ]
  %4 = sub nuw nsw i64 15, %indvars.iv19
  %5 = getelementptr inbounds nuw i8, ptr %0, i64 %4
  %6 = load i8, ptr %5, align 1, !tbaa !14
  %7 = zext i8 %6 to i64
  br label %8

8:                                                ; preds = %.preheader, %8
  %indvars.iv = phi i64 [ 0, %.preheader ], [ %indvars.iv.next, %8 ]
  %9 = sub nuw nsw i64 8, %indvars.iv
  %10 = mul nuw nsw i64 %9, %7
  %gep = getelementptr inbounds nuw i8, ptr %invariant.gep, i64 %indvars.iv
  %11 = load i8, ptr %gep, align 1, !tbaa !14
  %12 = zext i8 %11 to i16
  %13 = trunc i64 %indvars.iv to i16
  %14 = mul i16 %13, %12
  %15 = trunc nuw nsw i64 %10 to i16
  %16 = add nuw nsw i16 %15, 4
  %17 = add i16 %16, %14
  %18 = lshr i16 %17, 3
  %19 = trunc i16 %18 to i8
  %20 = getelementptr inbounds nuw i8, ptr %.01416, i64 %indvars.iv
  store i8 %19, ptr %20, align 1, !tbaa !14
  %indvars.iv.next = add nuw nsw i64 %indvars.iv, 1
  %exitcond.not = icmp eq i64 %indvars.iv.next, 8
  br i1 %exitcond.not, label %21, label %8, !llvm.loop !44

21:                                               ; preds = %8
  %22 = getelementptr inbounds i8, ptr %.01416, i64 %2
  %indvars.iv.next20 = add nuw nsw i64 %indvars.iv19, 1
  %exitcond22.not = icmp eq i64 %indvars.iv.next20, 8
  br i1 %exitcond22.not, label %23, label %.preheader, !llvm.loop !45

23:                                               ; preds = %21
  ret void
}